; Function Attrs: mustprogress uwtable
define internal void @_ZNK5faiss12_GLOBAL__N_110IVFScannerINS_17HammingComputer32EE16scan_codes_rangeEmPKhPKlfRNS_16RangeQueryResultE(ptr nocapture noundef nonnull readonly align 8 dereferenceable(168) %0, i64 noundef %1, ptr nocapture noundef readonly %2, ptr nocapture noundef readonly %3, float noundef %4, ptr noundef nonnull align 8 dereferenceable(24) %5) unnamed_addr #2 align 2 {
  %.not18 = icmp eq i64 %1, 0
  br i1 %.not18, label %._crit_edge, label %.lr.ph

.lr.ph:                                           ; preds = %6
  %7 = getelementptr inbounds i8, ptr %0, i64 136
  %8 = getelementptr inbounds i8, ptr %0, i64 17
  %9 = getelementptr inbounds i8, ptr %0, i64 8
  %10 = getelementptr inbounds i8, ptr %0, i64 32
  br label %11

11:                                               ; preds = %.lr.ph, %32
  %.017 = phi ptr [ %2, %.lr.ph ], [ %34, %32 ]
  %.01315 = phi i64 [ 0, %.lr.ph ], [ %35, %32 ]
  %12 = load <4 x i64>, ptr %.017, align 8
  %13 = load <4 x i64>, ptr %7, align 8
  %14 = xor <4 x i64> %13, %12
  %15 = tail call <4 x i64> @llvm.ctpop.v4i64(<4 x i64> %14), !range !13
  %16 = tail call i64 @llvm.vector.reduce.add.v4i64(<4 x i64> %15)
  %17 = trunc i64 %16 to i32
  %18 = sitofp i32 %17 to float
  %19 = fcmp olt float %18, %4
  br i1 %19, label %20, label %32

20:                                               ; preds = %11
  %21 = load i8, ptr %8, align 1
  %22 = and i8 %21, 1
  %.not = icmp eq i8 %22, 0
  br i1 %.not, label %27, label %23

23:                                               ; preds = %20
  %24 = load i64, ptr %9, align 8
  %25 = shl i64 %24, 32
  %26 = or i64 %25, %.01315
  br label %30

27:                                               ; preds = %20
  %28 = getelementptr inbounds i64, ptr %3, i64 %.01315
  %29 = load i64, ptr %28, align 8
  br label %30

30:                                               ; preds = %27, %23
  %31 = phi i64 [ %26, %23 ], [ %29, %27 ]
  tail call void @_ZN5faiss16RangeQueryResult3addEfl(ptr noundef nonnull align 8 dereferenceable(24) %5, float noundef %18, i64 noundef %31)
  br label %32

32:                                               ; preds = %30, %11
  %33 = load i64, ptr %10, align 8
  %34 = getelementptr inbounds i8, ptr %.017, i64 %33
  %35 = add nuw i64 %.01315, 1
  %exitcond.not = icmp eq i64 %35, %1
  br i1 %exitcond.not, label %._crit_edge, label %11, !llvm.loop !36

._crit_edge:                                      ; preds = %32, %6
  ret void
}